target datalayout = "e-m:e-p270:32:32-p271:32:32-p272:64:64-i64:64-i128:128-f80:128-n8:16:32:64-S128"
target triple = "x86_64-pc-linux-gnu"

@hf_nas_eps_spare_bits = internal global i32 0, align 4
@hf_nas_eps_emm_unavail_config_unavail_period_duration = internal global i32 0, align 4
@hf_nas_eps_emm_unavail_config_start_unavail_period = internal global i32 0, align 4
@de_emm_unavail_config.oct3 = internal constant [4 x ptr] [ptr @hf_nas_eps_emm_unavail_config_suppi, ptr @hf_nas_eps_emm_unavail_config_updpi, ptr @hf_nas_eps_emm_unavail_config_eupr, ptr null], align 16

; Function Attrs: null_pointer_is_valid sspstrong uwtable
define internal zeroext i16 @de_emm_unavail_config(ptr noundef %0, ptr noundef %1, ptr noundef %2, i32 noundef %3, i32 noundef %4, ptr noundef %5, i32 noundef %6) #1 {
  %8 = alloca ptr, align 8
  %9 = alloca ptr, align 8
  %10 = alloca ptr, align 8
  %11 = alloca i32, align 4
  %12 = alloca i32, align 4
  %13 = alloca ptr, align 8
  %14 = alloca i32, align 4
  %15 = alloca i64, align 8
  store ptr %0, ptr %8, align 8
  store ptr %1, ptr %9, align 8
  store ptr %2, ptr %10, align 8
  store i32 %3, ptr %11, align 4
  store i32 %4, ptr %12, align 4
  store ptr %5, ptr %13, align 8
  store i32 %6, ptr %14, align 4
  call void @llvm.lifetime.start.p0(i64 8, ptr %15) #10
  %16 = load ptr, ptr %9, align 8
  %17 = load i32, ptr @hf_nas_eps_spare_bits, align 4
  %18 = load ptr, ptr %8, align 8
  %19 = load i32, ptr %11, align 4
  %20 = shl i32 %19, 3
  %21 = call ptr @proto_tree_add_bits_item(ptr noundef %16, i32 noundef %17, ptr noundef %18, i32 noundef %20, i32 noundef 5, i32 noundef 0)
  %22 = load ptr, ptr %9, align 8
  %23 = load ptr, ptr %8, align 8
  %24 = load i32, ptr %11, align 4
  call void @proto_tree_add_bitmask_list_ret_uint64(ptr noundef %22, ptr noundef %23, i32 noundef %24, i32 noundef 1, ptr noundef @de_emm_unavail_config.oct3, i32 noundef 0, ptr noundef %15)
  %25 = load i32, ptr %11, align 4
  %26 = add i32 %25, 1
  store i32 %26, ptr %11, align 4
  %27 = load i64, ptr %15, align 8
  %28 = and i64 %27, 2
  %29 = icmp ne i64 %28, 0
  br i1 %29, label %30, label %38

30:                                               ; preds = %7
  %31 = load ptr, ptr %9, align 8
  %32 = load i32, ptr @hf_nas_eps_emm_unavail_config_unavail_period_duration, align 4
  %33 = load ptr, ptr %8, align 8
  %34 = load i32, ptr %11, align 4
  %35 = call ptr @proto_tree_add_item(ptr noundef %31, i32 noundef %32, ptr noundef %33, i32 noundef %34, i32 noundef 3, i32 noundef 0)
  %36 = load i32, ptr %11, align 4
  %37 = add i32 %36, 3
  store i32 %37, ptr %11, align 4
  br label %38

38:                                               ; preds = %30, %7
  %39 = load i64, ptr %15, align 8
  %40 = and i64 %39, 4
  %41 = icmp ne i64 %40, 0
  br i1 %41, label %42, label %48

42:                                               ; preds = %38
  %43 = load ptr, ptr %9, align 8
  %44 = load i32, ptr @hf_nas_eps_emm_unavail_config_start_unavail_period, align 4
  %45 = load ptr, ptr %8, align 8
  %46 = load i32, ptr %11, align 4
  %47 = call ptr @proto_tree_add_item(ptr noundef %43, i32 noundef %44, ptr noundef %45, i32 noundef %46, i32 noundef 3, i32 noundef 0)
  br label %48

48:                                               ; preds = %42, %38
  %49 = load i32, ptr %12, align 4
  %50 = trunc i32 %49 to i16
  call void @llvm.lifetime.end.p0(i64 8, ptr %15) #10
  ret i16 %50
}