; Function Attrs: null_pointer_is_valid sspstrong uwtable
define internal noundef zeroext i16 @de_emm_unavail_config(ptr noundef %0, ptr noundef %1, ptr readnone captures(none) %2, i32 noundef %3, i32 noundef %4, ptr readnone captures(none) %5, i32 %6) #1 {
  %8 = alloca i64, align 8
  call void @llvm.lifetime.start.p0(i64 8, ptr nonnull %8) #10
  %9 = load i32, ptr @hf_nas_eps_spare_bits, align 4
  %10 = shl i32 %3, 3
  %11 = tail call ptr @proto_tree_add_bits_item(ptr noundef %1, i32 noundef %9, ptr noundef %0, i32 noundef %10, i32 noundef 5, i32 noundef 0)
  call void @proto_tree_add_bitmask_list_ret_uint64(ptr noundef %1, ptr noundef %0, i32 noundef %3, i32 noundef 1, ptr noundef nonnull @de_emm_unavail_config.oct3, i32 noundef 0, ptr noundef nonnull %8)
  %12 = add i32 %3, 1
  %13 = load i64, ptr %8, align 8
  %14 = and i64 %13, 2
  %.not = icmp eq i64 %14, 0
  br i1 %.not, label %19, label %15

15:                                               ; preds = %7
  %16 = load i32, ptr @hf_nas_eps_emm_unavail_config_unavail_period_duration, align 4
  %17 = call ptr @proto_tree_add_item(ptr noundef %1, i32 noundef %16, ptr noundef %0, i32 noundef %12, i32 noundef 3, i32 noundef 0)
  %18 = add i32 %3, 4
  %.pre = load i64, ptr %8, align 8
  br label %19

19:                                               ; preds = %15, %7
  %20 = phi i64 [ %.pre, %15 ], [ %13, %7 ]
  %.0 = phi i32 [ %18, %15 ], [ %12, %7 ]
  %21 = and i64 %20, 4
  %.not14 = icmp eq i64 %21, 0
  br i1 %.not14, label %25, label %22

22:                                               ; preds = %19
  %23 = load i32, ptr @hf_nas_eps_emm_unavail_config_start_unavail_period, align 4
  %24 = call ptr @proto_tree_add_item(ptr noundef %1, i32 noundef %23, ptr noundef %0, i32 noundef %.0, i32 noundef 3, i32 noundef 0)
  br label %25

25:                                               ; preds = %22, %19
  %26 = trunc i32 %4 to i16
  call void @llvm.lifetime.end.p0(i64 8, ptr nonnull %8) #10
  ret i16 %26
}